target datalayout = "e-m:e-p270:32:32-p271:32:32-p272:64:64-i64:64-i128:128-f80:128-n8:16:32:64-S128"
target triple = "x86_64-pc-linux-gnu"

%struct.Aig_Man_t_ = type { ptr, ptr, ptr, ptr, ptr, ptr, ptr, %struct.Aig_Obj_t_, i32, i32, i32, i32, i32, i32, [7 x i32], i32, ptr, i32, ptr, i32, ptr, i32, i32, i32, ptr, i32, i32, i32, i32, i32, ptr, ptr, i32, ptr, ptr, i32, ptr, ptr, i32, i32, i32, ptr, ptr, ptr, ptr, ptr, ptr, ptr, ptr, ptr, ptr, ptr, ptr, ptr, ptr, i32, ptr, ptr, ptr, ptr, i32, i64, i64, i64, ptr, ptr }
%struct.Aig_Obj_t_ = type { %union.anon, ptr, ptr, i64, i32, i32, %union.anon.0 }
%union.anon = type { ptr }
%union.anon.0 = type { ptr }
%struct.Vec_Ptr_t_ = type { i32, i32, ptr }
%struct.Cnf_Dat_t_ = type { ptr, i32, i32, i32, ptr, ptr, ptr, ptr, ptr, ptr }
%struct.sat_solver_t = type { i32, i32, i32, i32, %struct.Sat_Mem_t_, i32, i32, ptr, ptr, i32, i32, i32, i32, i32, i64, i64, i64, ptr, ptr, i32, i32, %struct.veci_t, ptr, i32, ptr, ptr, ptr, ptr, ptr, ptr, ptr, ptr, %struct.veci_t, %struct.veci_t, %struct.veci_t, %struct.veci_t, ptr, %struct.veci_t, i32, i32, i32, double, double, i32, i32, i32, %struct.stats_t, i32, i32, i32, i32, i32, i64, i64, i64, %struct.veci_t, ptr, i32, i32, i32, %struct.veci_t, %struct.veci_t, i32, i32, i32, ptr, ptr, i32, ptr, i32, i32, %struct.veci_t, %struct.veci_t, %struct.veci_t, ptr, ptr, i32, ptr }
%struct.Sat_Mem_t_ = type { [2 x i32], [2 x i32], [2 x i32], [2 x i32], i32, i32, i32, i32, ptr }
%struct.stats_t = type { i32, i32, i32, i64, i64, i64, i64, i64, i64, i64 }
%struct.veci_t = type { i32, i32, ptr }

@.str.13 = private unnamed_addr constant [55 x i8] c"Warning: Reached the limit on the number of patterns.\0A\00", align 1

; Function Attrs: inlinehint nounwind uwtable
define internal void @Abc_InfoXorBit(ptr noundef %0, i32 noundef %1) #3 {
  %3 = alloca ptr, align 8
  %4 = alloca i32, align 4
  store ptr %0, ptr %3, align 8, !tbaa !16
  store i32 %1, ptr %4, align 4, !tbaa !8
  %5 = load i32, ptr %4, align 4, !tbaa !8
  %6 = and i32 %5, 31
  %7 = shl i32 1, %6
  %8 = load ptr, ptr %3, align 8, !tbaa !16
  %9 = load i32, ptr %4, align 4, !tbaa !8
  %10 = ashr i32 %9, 5
  %11 = sext i32 %10 to i64
  %12 = getelementptr inbounds i32, ptr %8, i64 %11
  %13 = load i32, ptr %12, align 4, !tbaa !8
  %14 = xor i32 %13, %7
  store i32 %14, ptr %12, align 4, !tbaa !8
  ret void
}

; Function Attrs: inlinehint nounwind uwtable
define internal i32 @sat_solver_var_value(ptr noundef %0, i32 noundef %1) #3 {
  %3 = alloca ptr, align 8
  %4 = alloca i32, align 4
  store ptr %0, ptr %3, align 8, !tbaa !91
  store i32 %1, ptr %4, align 4, !tbaa !8
  %5 = load ptr, ptr %3, align 8, !tbaa !91
  %6 = getelementptr inbounds nuw %struct.sat_solver_t, ptr %5, i32 0, i32 36
  %7 = load ptr, ptr %6, align 8, !tbaa !113
  %8 = load i32, ptr %4, align 4, !tbaa !8
  %9 = sext i32 %8 to i64
  %10 = getelementptr inbounds i32, ptr %7, i64 %9
  %11 = load i32, ptr %10, align 4, !tbaa !8
  %12 = icmp eq i32 %11, 1
  %13 = zext i1 %12 to i32
  ret i32 %13
}

; Function Attrs: inlinehint nounwind uwtable
define internal i32 @Abc_InfoHasBit(ptr noundef %0, i32 noundef %1) #3 {
  %3 = alloca ptr, align 8
  %4 = alloca i32, align 4
  store ptr %0, ptr %3, align 8, !tbaa !16
  store i32 %1, ptr %4, align 4, !tbaa !8
  %5 = load ptr, ptr %3, align 8, !tbaa !16
  %6 = load i32, ptr %4, align 4, !tbaa !8
  %7 = ashr i32 %6, 5
  %8 = sext i32 %7 to i64
  %9 = getelementptr inbounds i32, ptr %5, i64 %8
  %10 = load i32, ptr %9, align 4, !tbaa !8
  %11 = load i32, ptr %4, align 4, !tbaa !8
  %12 = and i32 %11, 31
  %13 = shl i32 1, %12
  %14 = and i32 %10, %13
  %15 = icmp ugt i32 %14, 0
  %16 = zext i1 %15 to i32
  ret i32 %16
}

; Function Attrs: inlinehint nounwind uwtable
define internal i32 @Aig_ObjIsCi(ptr noundef %0) #3 {
  %2 = alloca ptr, align 8
  store ptr %0, ptr %2, align 8, !tbaa !29
  %3 = load ptr, ptr %2, align 8, !tbaa !29
  %4 = getelementptr inbounds nuw %struct.Aig_Obj_t_, ptr %3, i32 0, i32 3
  %5 = load i64, ptr %4, align 8
  %6 = and i64 %5, 7
  %7 = trunc i64 %6 to i32
  %8 = icmp eq i32 %7, 2
  %9 = zext i1 %8 to i32
  ret i32 %9
}

; Function Attrs: inlinehint nounwind uwtable
define internal i32 @Aig_ObjIsNode(ptr noundef %0) #3 {
  %2 = alloca ptr, align 8
  store ptr %0, ptr %2, align 8, !tbaa !29
  %3 = load ptr, ptr %2, align 8, !tbaa !29
  %4 = getelementptr inbounds nuw %struct.Aig_Obj_t_, ptr %3, i32 0, i32 3
  %5 = load i64, ptr %4, align 8
  %6 = and i64 %5, 7
  %7 = trunc i64 %6 to i32
  %8 = icmp eq i32 %7, 5
  br i1 %8, label %16, label %9

9:                                                ; preds = %1
  %10 = load ptr, ptr %2, align 8, !tbaa !29
  %11 = getelementptr inbounds nuw %struct.Aig_Obj_t_, ptr %10, i32 0, i32 3
  %12 = load i64, ptr %11, align 8
  %13 = and i64 %12, 7
  %14 = trunc i64 %13 to i32
  %15 = icmp eq i32 %14, 6
  br label %16

16:                                               ; preds = %9, %1
  %17 = phi i1 [ true, %1 ], [ %15, %9 ]
  %18 = zext i1 %17 to i32
  ret i32 %18
}

; Function Attrs: inlinehint nounwind uwtable
define internal i32 @Vec_PtrSize(ptr noundef %0) #3 {
  %2 = alloca ptr, align 8
  store ptr %0, ptr %2, align 8, !tbaa !12
  %3 = load ptr, ptr %2, align 8, !tbaa !12
  %4 = getelementptr inbounds nuw %struct.Vec_Ptr_t_, ptr %3, i32 0, i32 1
  %5 = load i32, ptr %4, align 4, !tbaa !60
  ret i32 %5
}

; Function Attrs: inlinehint nounwind uwtable
define internal ptr @Vec_PtrEntry(ptr noundef %0, i32 noundef %1) #3 {
  %3 = alloca ptr, align 8
  %4 = alloca i32, align 4
  store ptr %0, ptr %3, align 8, !tbaa !12
  store i32 %1, ptr %4, align 4, !tbaa !8
  %5 = load ptr, ptr %3, align 8, !tbaa !12
  %6 = getelementptr inbounds nuw %struct.Vec_Ptr_t_, ptr %5, i32 0, i32 2
  %7 = load ptr, ptr %6, align 8, !tbaa !67
  %8 = load i32, ptr %4, align 4, !tbaa !8
  %9 = sext i32 %8 to i64
  %10 = getelementptr inbounds ptr, ptr %7, i64 %9
  %11 = load ptr, ptr %10, align 8, !tbaa !58
  ret ptr %11
}

; Function Attrs: inlinehint nounwind uwtable
define internal i32 @Vec_PtrReadWordsSimInfo(ptr noundef %0) #3 {
  %2 = alloca ptr, align 8
  store ptr %0, ptr %2, align 8, !tbaa !12
  %3 = load ptr, ptr %2, align 8, !tbaa !12
  %4 = call ptr @Vec_PtrEntry(ptr noundef %3, i32 noundef 1)
  %5 = load ptr, ptr %2, align 8, !tbaa !12
  %6 = call ptr @Vec_PtrEntry(ptr noundef %5, i32 noundef 0)
  %7 = ptrtoint ptr %4 to i64
  %8 = ptrtoint ptr %6 to i64
  %9 = sub i64 %7, %8
  %10 = sdiv exact i64 %9, 4
  %11 = trunc i64 %10 to i32
  ret i32 %11
}

; Function Attrs: nounwind uwtable
define void @Saig_CollectSatValues(ptr noundef %0, ptr noundef %1, ptr noundef %2, ptr noundef %3) #0 {
  %5 = alloca ptr, align 8
  %6 = alloca ptr, align 8
  %7 = alloca ptr, align 8
  %8 = alloca ptr, align 8
  %9 = alloca ptr, align 8
  %10 = alloca ptr, align 8
  %11 = alloca i32, align 4
  store ptr %0, ptr %5, align 8, !tbaa !91
  store ptr %1, ptr %6, align 8, !tbaa !93
  store ptr %2, ptr %7, align 8, !tbaa !12
  store ptr %3, ptr %8, align 8, !tbaa !16
  call void @llvm.lifetime.start.p0(i64 8, ptr %9) #11
  call void @llvm.lifetime.start.p0(i64 8, ptr %10) #11
  call void @llvm.lifetime.start.p0(i64 4, ptr %11) #11
  store i32 0, ptr %11, align 4, !tbaa !8
  br label %12

12:                                               ; preds = %68, %4
  %13 = load i32, ptr %11, align 4, !tbaa !8
  %14 = load ptr, ptr %6, align 8, !tbaa !93
  %15 = getelementptr inbounds nuw %struct.Cnf_Dat_t_, ptr %14, i32 0, i32 0
  %16 = load ptr, ptr %15, align 8, !tbaa !111
  %17 = getelementptr inbounds nuw %struct.Aig_Man_t_, ptr %16, i32 0, i32 4
  %18 = load ptr, ptr %17, align 8, !tbaa !37
  %19 = call i32 @Vec_PtrSize(ptr noundef %18)
  %20 = icmp slt i32 %13, %19
  br i1 %20, label %21, label %29

21:                                               ; preds = %12
  %22 = load ptr, ptr %6, align 8, !tbaa !93
  %23 = getelementptr inbounds nuw %struct.Cnf_Dat_t_, ptr %22, i32 0, i32 0
  %24 = load ptr, ptr %23, align 8, !tbaa !111
  %25 = getelementptr inbounds nuw %struct.Aig_Man_t_, ptr %24, i32 0, i32 4
  %26 = load ptr, ptr %25, align 8, !tbaa !37
  %27 = load i32, ptr %11, align 4, !tbaa !8
  %28 = call ptr @Vec_PtrEntry(ptr noundef %26, i32 noundef %27)
  store ptr %28, ptr %9, align 8, !tbaa !29
  br label %29

29:                                               ; preds = %21, %12
  %30 = phi i1 [ false, %12 ], [ true, %21 ]
  br i1 %30, label %31, label %71

31:                                               ; preds = %29
  %32 = load ptr, ptr %9, align 8, !tbaa !29
  %33 = icmp eq ptr %32, null
  br i1 %33, label %34, label %35

34:                                               ; preds = %31
  br label %67

35:                                               ; preds = %31
  %36 = load ptr, ptr %9, align 8, !tbaa !29
  %37 = call i32 @Aig_ObjIsNode(ptr noundef %36)
  %38 = icmp ne i32 %37, 0
  br i1 %38, label %44, label %39

39:                                               ; preds = %35
  %40 = load ptr, ptr %9, align 8, !tbaa !29
  %41 = call i32 @Aig_ObjIsCi(ptr noundef %40)
  %42 = icmp ne i32 %41, 0
  br i1 %42, label %44, label %43

43:                                               ; preds = %39
  br label %68

44:                                               ; preds = %39, %35
  %45 = load ptr, ptr %7, align 8, !tbaa !12
  %46 = load i32, ptr %11, align 4, !tbaa !8
  %47 = call ptr @Vec_PtrEntry(ptr noundef %45, i32 noundef %46)
  store ptr %47, ptr %10, align 8, !tbaa !16
  %48 = load ptr, ptr %10, align 8, !tbaa !16
  %49 = load ptr, ptr %8, align 8, !tbaa !16
  %50 = load i32, ptr %49, align 4, !tbaa !8
  %51 = call i32 @Abc_InfoHasBit(ptr noundef %48, i32 noundef %50)
  %52 = load ptr, ptr %5, align 8, !tbaa !91
  %53 = load ptr, ptr %6, align 8, !tbaa !93
  %54 = getelementptr inbounds nuw %struct.Cnf_Dat_t_, ptr %53, i32 0, i32 5
  %55 = load ptr, ptr %54, align 8, !tbaa !95
  %56 = load i32, ptr %11, align 4, !tbaa !8
  %57 = sext i32 %56 to i64
  %58 = getelementptr inbounds i32, ptr %55, i64 %57
  %59 = load i32, ptr %58, align 4, !tbaa !8
  %60 = call i32 @sat_solver_var_value(ptr noundef %52, i32 noundef %59)
  %61 = icmp ne i32 %51, %60
  br i1 %61, label %62, label %66

62:                                               ; preds = %44
  %63 = load ptr, ptr %10, align 8, !tbaa !16
  %64 = load ptr, ptr %8, align 8, !tbaa !16
  %65 = load i32, ptr %64, align 4, !tbaa !8
  call void @Abc_InfoXorBit(ptr noundef %63, i32 noundef %65)
  br label %66

66:                                               ; preds = %62, %44
  br label %67

67:                                               ; preds = %66, %34
  br label %68

68:                                               ; preds = %67, %43
  %69 = load i32, ptr %11, align 4, !tbaa !8
  %70 = add nsw i32 %69, 1
  store i32 %70, ptr %11, align 4, !tbaa !8
  br label %12, !llvm.loop !112

71:                                               ; preds = %29
  call void @llvm.lifetime.end.p0(i64 4, ptr %11) #11
  call void @llvm.lifetime.end.p0(i64 8, ptr %10) #11
  call void @llvm.lifetime.end.p0(i64 8, ptr %9) #11
  ret void
}

; Function Attrs: inlinehint nounwind uwtable
define internal i32 @toLitCond(i32 noundef %0, i32 noundef %1) #3 {
  %3 = alloca i32, align 4
  %4 = alloca i32, align 4
  store i32 %0, ptr %3, align 4, !tbaa !8
  store i32 %1, ptr %4, align 4, !tbaa !8
  %5 = load i32, ptr %3, align 4, !tbaa !8
  %6 = load i32, ptr %3, align 4, !tbaa !8
  %7 = add nsw i32 %5, %6
  %8 = load i32, ptr %4, align 4, !tbaa !8
  %9 = icmp ne i32 %8, 0
  %10 = zext i1 %9 to i32
  %11 = add nsw i32 %7, %10
  ret i32 %11
}

; Function Attrs: inlinehint nounwind uwtable
define internal i32 @Aig_ObjId(ptr noundef %0) #3 {
  %2 = alloca ptr, align 8
  store ptr %0, ptr %2, align 8, !tbaa !29
  %3 = load ptr, ptr %2, align 8, !tbaa !29
  %4 = getelementptr inbounds nuw %struct.Aig_Obj_t_, ptr %3, i32 0, i32 5
  %5 = load i32, ptr %4, align 4, !tbaa !68
  ret i32 %5
}

; Function Attrs: inlinehint nounwind uwtable
define internal ptr @Aig_ManCo(ptr noundef %0, i32 noundef %1) #3 {
  %3 = alloca ptr, align 8
  %4 = alloca i32, align 4
  store ptr %0, ptr %3, align 8, !tbaa !3
  store i32 %1, ptr %4, align 4, !tbaa !8
  %5 = load ptr, ptr %3, align 8, !tbaa !3
  %6 = getelementptr inbounds nuw %struct.Aig_Man_t_, ptr %5, i32 0, i32 3
  %7 = load ptr, ptr %6, align 8, !tbaa !20
  %8 = load i32, ptr %4, align 4, !tbaa !8
  %9 = call ptr @Vec_PtrEntry(ptr noundef %7, i32 noundef %8)
  ret ptr %9
}

; Function Attrs: nounwind uwtable
define i32 @Saig_DetectTryPolarity(ptr noundef %0, i32 noundef %1, i32 noundef %2, ptr noundef %3, ptr noundef %4, i32 noundef %5, ptr noundef %6, ptr noundef %7, i32 noundef %8) #0 {
  %10 = alloca i32, align 4
  %11 = alloca ptr, align 8
  %12 = alloca i32, align 4
  %13 = alloca i32, align 4
  %14 = alloca ptr, align 8
  %15 = alloca ptr, align 8
  %16 = alloca i32, align 4
  %17 = alloca ptr, align 8
  %18 = alloca ptr, align 8
  %19 = alloca i32, align 4
  %20 = alloca ptr, align 8
  %21 = alloca i32, align 4
  %22 = alloca [2 x i32], align 4
  %23 = alloca i32, align 4
  store ptr %0, ptr %11, align 8, !tbaa !91
  store i32 %1, ptr %12, align 4, !tbaa !8
  store i32 %2, ptr %13, align 4, !tbaa !8
  store ptr %3, ptr %14, align 8, !tbaa !93
  store ptr %4, ptr %15, align 8, !tbaa !29
  store i32 %5, ptr %16, align 4, !tbaa !8
  store ptr %6, ptr %17, align 8, !tbaa !12
  store ptr %7, ptr %18, align 8, !tbaa !16
  store i32 %8, ptr %19, align 4, !tbaa !8
  call void @llvm.lifetime.start.p0(i64 8, ptr %20) #11
  %24 = load ptr, ptr %14, align 8, !tbaa !93
  %25 = getelementptr inbounds nuw %struct.Cnf_Dat_t_, ptr %24, i32 0, i32 0
  %26 = load ptr, ptr %25, align 8, !tbaa !111
  %27 = call ptr @Aig_ManCo(ptr noundef %26, i32 noundef 0)
  store ptr %27, ptr %20, align 8, !tbaa !29
  call void @llvm.lifetime.start.p0(i64 4, ptr %21) #11
  call void @llvm.lifetime.start.p0(i64 8, ptr %22) #11
  %28 = load ptr, ptr %14, align 8, !tbaa !93
  %29 = getelementptr inbounds nuw %struct.Cnf_Dat_t_, ptr %28, i32 0, i32 5
  %30 = load ptr, ptr %29, align 8, !tbaa !95
  %31 = load ptr, ptr %20, align 8, !tbaa !29
  %32 = call i32 @Aig_ObjId(ptr noundef %31)
  %33 = sext i32 %32 to i64
  %34 = getelementptr inbounds i32, ptr %30, i64 %33
  %35 = load i32, ptr %34, align 4, !tbaa !8
  %36 = call i32 @toLitCond(i32 noundef %35, i32 noundef 0)
  %37 = getelementptr inbounds [2 x i32], ptr %22, i64 0, i64 0
  store i32 %36, ptr %37, align 4, !tbaa !8
  %38 = load ptr, ptr %14, align 8, !tbaa !93
  %39 = getelementptr inbounds nuw %struct.Cnf_Dat_t_, ptr %38, i32 0, i32 5
  %40 = load ptr, ptr %39, align 8, !tbaa !95
  %41 = load ptr, ptr %15, align 8, !tbaa !29
  %42 = call i32 @Aig_ObjId(ptr noundef %41)
  %43 = sext i32 %42 to i64
  %44 = getelementptr inbounds i32, ptr %40, i64 %43
  %45 = load i32, ptr %44, align 4, !tbaa !8
  %46 = load i32, ptr %16, align 4, !tbaa !8
  %47 = icmp ne i32 %46, 0
  %48 = xor i1 %47, true
  %49 = zext i1 %48 to i32
  %50 = call i32 @toLitCond(i32 noundef %45, i32 noundef %49)
  %51 = getelementptr inbounds [2 x i32], ptr %22, i64 0, i64 1
  store i32 %50, ptr %51, align 4, !tbaa !8
  %52 = load ptr, ptr %11, align 8, !tbaa !91
  %53 = getelementptr inbounds [2 x i32], ptr %22, i64 0, i64 0
  %54 = getelementptr inbounds [2 x i32], ptr %22, i64 0, i64 0
  %55 = getelementptr inbounds i32, ptr %54, i64 2
  %56 = load i32, ptr %12, align 4, !tbaa !8
  %57 = sext i32 %56 to i64
  %58 = load i32, ptr %13, align 4, !tbaa !8
  %59 = sext i32 %58 to i64
  %60 = call i32 @sat_solver_solve(ptr noundef %52, ptr noundef %53, ptr noundef %55, i64 noundef %57, i64 noundef %59, i64 noundef 0, i64 noundef 0)
  store i32 %60, ptr %21, align 4, !tbaa !8
  %61 = load i32, ptr %21, align 4, !tbaa !8
  %62 = icmp eq i32 %61, -1
  br i1 %62, label %63, label %64

63:                                               ; preds = %9
  store i32 1, ptr %10, align 4
  store i32 1, ptr %23, align 4
  br label %90

64:                                               ; preds = %9
  %65 = load i32, ptr %21, align 4, !tbaa !8
  %66 = icmp eq i32 %65, 0
  br i1 %66, label %67, label %68

67:                                               ; preds = %64
  store i32 0, ptr %10, align 4
  store i32 1, ptr %23, align 4
  br label %90

68:                                               ; preds = %64
  %69 = load ptr, ptr %11, align 8, !tbaa !91
  %70 = load ptr, ptr %14, align 8, !tbaa !93
  %71 = load ptr, ptr %17, align 8, !tbaa !12
  %72 = load ptr, ptr %18, align 8, !tbaa !16
  call void @Saig_CollectSatValues(ptr noundef %69, ptr noundef %70, ptr noundef %71, ptr noundef %72)
  %73 = load ptr, ptr %18, align 8, !tbaa !16
  %74 = load i32, ptr %73, align 4, !tbaa !8
  %75 = add nsw i32 %74, 1
  store i32 %75, ptr %73, align 4, !tbaa !8
  %76 = load ptr, ptr %18, align 8, !tbaa !16
  %77 = load i32, ptr %76, align 4, !tbaa !8
  %78 = load ptr, ptr %17, align 8, !tbaa !12
  %79 = call i32 @Vec_PtrReadWordsSimInfo(ptr noundef %78)
  %80 = mul nsw i32 %79, 32
  %81 = icmp eq i32 %77, %80
  br i1 %81, label %82, label %89

82:                                               ; preds = %68
  %83 = load i32, ptr %19, align 4, !tbaa !8
  %84 = icmp ne i32 %83, 0
  br i1 %84, label %85, label %87

85:                                               ; preds = %82
  %86 = call i32 (ptr, ...) @printf(ptr noundef @.str.13)
  br label %87

87:                                               ; preds = %85, %82
  %88 = load ptr, ptr %18, align 8, !tbaa !16
  store i32 0, ptr %88, align 4, !tbaa !8
  br label %89

89:                                               ; preds = %87, %68
  store i32 0, ptr %10, align 4
  store i32 1, ptr %23, align 4
  br label %90

90:                                               ; preds = %89, %67, %63
  call void @llvm.lifetime.end.p0(i64 8, ptr %22) #11
  call void @llvm.lifetime.end.p0(i64 4, ptr %21) #11
  call void @llvm.lifetime.end.p0(i64 8, ptr %20) #11
  %91 = load i32, ptr %10, align 4
  ret i32 %91
}