; Function Attrs: nounwind uwtable
define range(i32 0, 2) i32 @Saig_DetectTryPolarity(ptr noundef %0, i32 noundef %1, i32 noundef %2, ptr noundef readonly captures(none) %3, ptr noundef readonly captures(none) %4, i32 noundef %5, ptr noundef readonly captures(none) %6, ptr noundef captures(none) %7, i32 noundef %8) local_unnamed_addr #0 {
  %10 = alloca [2 x i32], align 4
  %11 = load ptr, ptr %3, align 8, !tbaa !100
  %12 = getelementptr i8, ptr %11, i64 24
  %.val23 = load ptr, ptr %12, align 8, !tbaa !39
  %13 = getelementptr i8, ptr %.val23, i64 8
  %.val23.val = load ptr, ptr %13, align 8, !tbaa !40
  %14 = load ptr, ptr %.val23.val, align 8, !tbaa !28
  call void @llvm.lifetime.start.p0(i64 8, ptr nonnull %10) #16
  %15 = getelementptr inbounds nuw i8, ptr %3, i64 32
  %16 = load ptr, ptr %15, align 8, !tbaa !84
  %17 = getelementptr i8, ptr %14, i64 36
  %.val22 = load i32, ptr %17, align 4, !tbaa !38
  %18 = sext i32 %.val22 to i64
  %19 = getelementptr inbounds i32, ptr %16, i64 %18
  %20 = load i32, ptr %19, align 4, !tbaa !9
  %21 = shl nsw i32 %20, 1
  store i32 %21, ptr %10, align 4, !tbaa !9
  %22 = getelementptr i8, ptr %4, i64 36
  %.val = load i32, ptr %22, align 4, !tbaa !38
  %23 = sext i32 %.val to i64
  %24 = getelementptr inbounds i32, ptr %16, i64 %23
  %25 = load i32, ptr %24, align 4, !tbaa !9
  %.not = icmp eq i32 %5, 0
  %26 = zext i1 %.not to i32
  %27 = shl nsw i32 %25, 1
  %28 = or disjoint i32 %27, %26
  %29 = getelementptr inbounds nuw i8, ptr %10, i64 4
  store i32 %28, ptr %29, align 4, !tbaa !9
  %30 = getelementptr inbounds nuw i8, ptr %10, i64 8
  %31 = sext i32 %1 to i64
  %32 = sext i32 %2 to i64
  %33 = call i32 @sat_solver_solve(ptr noundef %0, ptr noundef nonnull %10, ptr noundef nonnull %30, i64 noundef %31, i64 noundef %32, i64 noundef 0, i64 noundef 0) #16
  switch i32 %33, label %35 [
    i32 -1, label %90
    i32 0, label %34
  ]

34:                                               ; preds = %9
  br label %90

35:                                               ; preds = %9
  %36 = load ptr, ptr %3, align 8, !tbaa !100
  %37 = getelementptr inbounds nuw i8, ptr %36, i64 32
  %38 = load ptr, ptr %37, align 8, !tbaa !25
  %39 = getelementptr i8, ptr %38, i64 4
  %.val24.i = load i32, ptr %39, align 4, !tbaa !26
  %40 = icmp sgt i32 %.val24.i, 0
  br i1 %40, label %.lr.ph.i, label %Saig_CollectSatValues.exit

.lr.ph.i:                                         ; preds = %35
  %41 = getelementptr i8, ptr %38, i64 8
  %.val20.i = load ptr, ptr %41, align 8, !tbaa !40
  %42 = getelementptr i8, ptr %6, i64 8
  %43 = getelementptr i8, ptr %0, i64 328
  br label %44

44:                                               ; preds = %75, %.lr.ph.i
  %.val27.i = phi i32 [ %.val24.i, %.lr.ph.i ], [ %.val.i, %75 ]
  %indvars.iv.i = phi i64 [ 0, %.lr.ph.i ], [ %indvars.iv.next.i, %75 ]
  %45 = getelementptr inbounds nuw ptr, ptr %.val20.i, i64 %indvars.iv.i
  %46 = load ptr, ptr %45, align 8, !tbaa !28
  %47 = icmp eq ptr %46, null
  br i1 %47, label %75, label %48

48:                                               ; preds = %44
  %49 = getelementptr i8, ptr %46, i64 24
  %.val21.i = load i64, ptr %49, align 8
  %50 = trunc i64 %.val21.i to i32
  %51 = and i32 %50, 7
  %52 = add nsw i32 %51, -5
  %narrow.i.i = icmp ult i32 %52, 2
  %53 = and i64 %.val21.i, 7
  %.not.i = icmp eq i64 %53, 2
  %or.cond.i = or i1 %.not.i, %narrow.i.i
  br i1 %or.cond.i, label %54, label %75

54:                                               ; preds = %48
  %.val19.i = load ptr, ptr %42, align 8, !tbaa !40
  %55 = getelementptr inbounds nuw ptr, ptr %.val19.i, i64 %indvars.iv.i
  %56 = load ptr, ptr %55, align 8, !tbaa !28
  %57 = load i32, ptr %7, align 4, !tbaa !9
  %58 = ashr i32 %57, 5
  %59 = sext i32 %58 to i64
  %60 = getelementptr inbounds i32, ptr %56, i64 %59
  %61 = load i32, ptr %60, align 4, !tbaa !9
  %62 = and i32 %57, 31
  %63 = lshr i32 %61, %62
  %64 = load ptr, ptr %15, align 8, !tbaa !84
  %65 = getelementptr inbounds nuw i32, ptr %64, i64 %indvars.iv.i
  %66 = load i32, ptr %65, align 4, !tbaa !9
  %.val23.i = load ptr, ptr %43, align 8, !tbaa !101
  %67 = sext i32 %66 to i64
  %68 = getelementptr inbounds i32, ptr %.val23.i, i64 %67
  %69 = load i32, ptr %68, align 4, !tbaa !9
  %70 = trunc i32 %63 to i1
  %71 = icmp ne i32 %69, 1
  %.not18.i = xor i1 %71, %70
  br i1 %.not18.i, label %75, label %72

72:                                               ; preds = %54
  %73 = shl nuw i32 1, %62
  %74 = xor i32 %73, %61
  store i32 %74, ptr %60, align 4, !tbaa !9
  %.val.pre.i = load i32, ptr %39, align 4, !tbaa !26
  br label %75

75:                                               ; preds = %72, %54, %48, %44
  %.val.i = phi i32 [ %.val27.i, %48 ], [ %.val27.i, %44 ], [ %.val.pre.i, %72 ], [ %.val27.i, %54 ]
  %indvars.iv.next.i = add nuw nsw i64 %indvars.iv.i, 1
  %76 = sext i32 %.val.i to i64
  %77 = icmp slt i64 %indvars.iv.next.i, %76
  br i1 %77, label %44, label %Saig_CollectSatValues.exit, !llvm.loop !112

Saig_CollectSatValues.exit:                       ; preds = %75, %35
  %78 = load i32, ptr %7, align 4, !tbaa !9
  %79 = add nsw i32 %78, 1
  store i32 %79, ptr %7, align 4, !tbaa !9
  %80 = getelementptr i8, ptr %6, i64 8
  %.val24 = load ptr, ptr %80, align 8, !tbaa !40
  %.val24.val = load ptr, ptr %.val24, align 8, !tbaa !28
  %81 = getelementptr i8, ptr %.val24, i64 8
  %.val24.val25 = load ptr, ptr %81, align 8, !tbaa !28
  %82 = ptrtoint ptr %.val24.val25 to i64
  %83 = ptrtoint ptr %.val24.val to i64
  %84 = sub i64 %82, %83
  %.tr = trunc i64 %84 to i32
  %tr.sh.diff = shl i32 %.tr, 3
  %85 = and i32 %tr.sh.diff, -32
  %86 = icmp eq i32 %79, %85
  br i1 %86, label %87, label %90

87:                                               ; preds = %Saig_CollectSatValues.exit
  %.not21 = icmp eq i32 %8, 0
  br i1 %.not21, label %89, label %88

88:                                               ; preds = %87
  %puts = call i32 @puts(ptr nonnull dereferenceable(1) @str)
  br label %89

89:                                               ; preds = %88, %87
  store i32 0, ptr %7, align 4, !tbaa !9
  br label %90

90:                                               ; preds = %Saig_CollectSatValues.exit, %89, %9, %34
  %.0 = phi i32 [ 0, %34 ], [ 1, %9 ], [ 0, %89 ], [ 0, %Saig_CollectSatValues.exit ]
  call void @llvm.lifetime.end.p0(i64 8, ptr nonnull %10) #16
  ret i32 %.0
}